target datalayout = "e-m:e-p270:32:32-p271:32:32-p272:64:64-i64:64-i128:128-f80:128-n8:16:32:64-S128"
target triple = "x86_64-pc-linux-gnu"

%struct.shared_mutables = type { %"class.grpc_core::Timestamp", %struct.gpr_spinlock, i8, i64, [32 x i8] }
%"class.grpc_core::Timestamp" = type { i64 }
%struct.gpr_spinlock = type { i64 }
%struct.grpc_timer = type { i64, i32, i8, ptr, ptr, ptr, %union.anon }
%union.anon = type { %"struct.grpc_event_engine::experimental::EventEngine::TaskHandle" }
%"struct.grpc_event_engine::experimental::EventEngine::TaskHandle" = type { [2 x i64] }
%"class.grpc_core::DebugLocation" = type { i8 }
%"class.absl::lts_20240722::Status" = type { i64 }
%"class.std::basic_string_view" = type { i64, ptr }
%"class.std::vector" = type { %"struct.std::_Vector_base" }
%"struct.std::_Vector_base" = type { %"struct.std::_Vector_base<absl::lts_20240722::Status, std::allocator<absl::lts_20240722::Status>>::_Vector_impl" }
%"struct.std::_Vector_base<absl::lts_20240722::Status, std::allocator<absl::lts_20240722::Status>>::_Vector_impl" = type { %"struct.std::_Vector_base<absl::lts_20240722::Status, std::allocator<absl::lts_20240722::Status>>::_Vector_impl_data" }
%"struct.std::_Vector_base<absl::lts_20240722::Status, std::allocator<absl::lts_20240722::Status>>::_Vector_impl_data" = type { ptr, ptr, ptr }
%struct.timer_shard = type { i64, %"class.grpc_core::ManualConstructor", %"class.grpc_core::Timestamp", %"class.grpc_core::Timestamp", i32, %struct.grpc_timer_heap, %struct.grpc_timer }
%"class.grpc_core::ManualConstructor" = type { [56 x i8] }
%struct.grpc_timer_heap = type { ptr, i32, i32 }

@_ZL17g_shared_mutables = internal global %struct.shared_mutables zeroinitializer, align 64
@_ZL8g_shards = internal global ptr null, align 8
@_ZL12g_num_shards = internal global i64 0, align 8
@.str = private unnamed_addr constant [123 x i8] c"generated/home/dtcxzyw/WorkSpace/Projects/compilers/llvm-opt-benchmark/bench/grpc/grpc/src/core/lib/iomgr/timer_generic.cc\00", align 1
@_ZL13g_shard_queue = internal global ptr null, align 8
@.str.43 = private unnamed_addr constant [20 x i8] c"Timer list shutdown\00", align 1

; Function Attrs: mustprogress nounwind uwtable
define linkonce_odr void @_ZNSt15__new_allocatorIN4absl12lts_202407226StatusEEC2Ev(ptr noundef nonnull align 1 dereferenceable(1) %0) unnamed_addr #5 comdat align 2 {
  %2 = alloca ptr, align 8
  store ptr %0, ptr %2, align 8, !tbaa !133
  ret void
}

; Function Attrs: mustprogress nounwind uwtable
define linkonce_odr void @_ZNSt12_Vector_baseIN4absl12lts_202407226StatusESaIS2_EE17_Vector_impl_dataC2Ev(ptr noundef nonnull align 8 dereferenceable(24) %0) unnamed_addr #5 comdat align 2 {
  %2 = alloca ptr, align 8
  store ptr %0, ptr %2, align 8, !tbaa !130
  %3 = load ptr, ptr %2, align 8
  %4 = getelementptr inbounds nuw %"struct.std::_Vector_base<absl::lts_20240722::Status, std::allocator<absl::lts_20240722::Status>>::_Vector_impl_data", ptr %3, i32 0, i32 0
  store ptr null, ptr %4, align 8, !tbaa !84
  %5 = getelementptr inbounds nuw %"struct.std::_Vector_base<absl::lts_20240722::Status, std::allocator<absl::lts_20240722::Status>>::_Vector_impl_data", ptr %3, i32 0, i32 1
  store ptr null, ptr %5, align 8, !tbaa !86
  %6 = getelementptr inbounds nuw %"struct.std::_Vector_base<absl::lts_20240722::Status, std::allocator<absl::lts_20240722::Status>>::_Vector_impl_data", ptr %3, i32 0, i32 2
  store ptr null, ptr %6, align 8, !tbaa !132
  ret void
}

; Function Attrs: mustprogress nounwind uwtable
define linkonce_odr void @_ZNSaIN4absl12lts_202407226StatusEEC2Ev(ptr noundef nonnull align 1 dereferenceable(1) %0) unnamed_addr #5 comdat align 2 {
  %2 = alloca ptr, align 8
  store ptr %0, ptr %2, align 8, !tbaa !128
  %3 = load ptr, ptr %2, align 8
  call void @_ZNSt15__new_allocatorIN4absl12lts_202407226StatusEEC2Ev(ptr noundef nonnull align 1 dereferenceable(1) %3) #3
  ret void
}

; Function Attrs: mustprogress nounwind uwtable
define linkonce_odr void @_ZNSt12_Vector_baseIN4absl12lts_202407226StatusESaIS2_EE12_Vector_implC2Ev(ptr noundef nonnull align 8 dereferenceable(24) %0) unnamed_addr #5 comdat align 2 {
  %2 = alloca ptr, align 8
  store ptr %0, ptr %2, align 8, !tbaa !126
  %3 = load ptr, ptr %2, align 8
  call void @_ZNSaIN4absl12lts_202407226StatusEEC2Ev(ptr noundef nonnull align 1 dereferenceable(1) %3) #3
  call void @_ZNSt12_Vector_baseIN4absl12lts_202407226StatusESaIS2_EE17_Vector_impl_dataC2Ev(ptr noundef nonnull align 8 dereferenceable(24) %3) #3
  ret void
}

; Function Attrs: mustprogress nounwind uwtable
define linkonce_odr void @_ZNSt12_Vector_baseIN4absl12lts_202407226StatusESaIS2_EEC2Ev(ptr noundef nonnull align 8 dereferenceable(24) %0) unnamed_addr #5 comdat align 2 {
  %2 = alloca ptr, align 8
  store ptr %0, ptr %2, align 8, !tbaa !124
  %3 = load ptr, ptr %2, align 8
  %4 = getelementptr inbounds nuw %"struct.std::_Vector_base", ptr %3, i32 0, i32 0
  call void @_ZNSt12_Vector_baseIN4absl12lts_202407226StatusESaIS2_EE12_Vector_implC2Ev(ptr noundef nonnull align 8 dereferenceable(24) %4) #3
  ret void
}

; Function Attrs: mustprogress nounwind uwtable
define linkonce_odr noundef i64 @_ZNSt11char_traitsIcE6lengthEPKc(ptr noundef %0) #5 comdat align 2 {
  %2 = alloca ptr, align 8
  store ptr %0, ptr %2, align 8, !tbaa !31
  %3 = load ptr, ptr %2, align 8, !tbaa !31
  %4 = call i64 @strlen(ptr noundef %3) #3
  ret i64 %4
}

; Function Attrs: mustprogress nounwind uwtable
define linkonce_odr void @_ZN9grpc_core9TimestampC2El(ptr noundef nonnull align 8 dereferenceable(8) %0, i64 noundef %1) unnamed_addr #5 comdat align 2 {
  %3 = alloca ptr, align 8
  %4 = alloca i64, align 8
  store ptr %0, ptr %3, align 8, !tbaa !41
  store i64 %1, ptr %4, align 8, !tbaa !20
  %5 = load ptr, ptr %3, align 8
  %6 = getelementptr inbounds nuw %"class.grpc_core::Timestamp", ptr %5, i32 0, i32 0
  %7 = load i64, ptr %4, align 8, !tbaa !20
  store i64 %7, ptr %6, align 8, !tbaa !53
  ret void
}

; Function Attrs: mustprogress nounwind uwtable
define linkonce_odr noundef i64 @_ZNSt14numeric_limitsIlE3maxEv() #5 comdat align 2 {
  ret i64 9223372036854775807
}

; Function Attrs: mustprogress nounwind uwtable
define linkonce_odr void @_ZNSt6vectorIN4absl12lts_202407226StatusESaIS2_EEC2Ev(ptr noundef nonnull align 8 dereferenceable(24) %0) unnamed_addr #5 comdat align 2 {
  %2 = alloca ptr, align 8
  store ptr %0, ptr %2, align 8, !tbaa !78
  %3 = load ptr, ptr %2, align 8
  call void @_ZNSt12_Vector_baseIN4absl12lts_202407226StatusESaIS2_EEC2Ev(ptr noundef nonnull align 8 dereferenceable(24) %3) #3
  ret void
}

; Function Attrs: mustprogress nounwind uwtable
define linkonce_odr void @_ZN9grpc_core13DebugLocationC2EPKci(ptr noundef nonnull align 1 dereferenceable(1) %0, ptr noundef %1, i32 noundef %2) unnamed_addr #5 comdat align 2 {
  %4 = alloca ptr, align 8
  %5 = alloca ptr, align 8
  %6 = alloca i32, align 4
  store ptr %0, ptr %4, align 8, !tbaa !71
  store ptr %1, ptr %5, align 8, !tbaa !31
  store i32 %2, ptr %6, align 4, !tbaa !17
  ret void
}

; Function Attrs: mustprogress nounwind uwtable
define linkonce_odr void @_ZNSt17basic_string_viewIcSt11char_traitsIcEEC2EPKc(ptr noundef nonnull align 8 dereferenceable(16) %0, ptr noundef nonnull %1) unnamed_addr #5 comdat align 2 personality ptr @__gxx_personality_v0 {
  %3 = alloca ptr, align 8
  %4 = alloca ptr, align 8
  store ptr %0, ptr %3, align 8, !tbaa !73
  store ptr %1, ptr %4, align 8, !tbaa !31
  %5 = load ptr, ptr %3, align 8
  %6 = getelementptr inbounds nuw %"class.std::basic_string_view", ptr %5, i32 0, i32 0
  %7 = load ptr, ptr %4, align 8, !tbaa !31
  %8 = invoke noundef i64 @_ZNSt11char_traitsIcE6lengthEPKc(ptr noundef %7)
          to label %9 unwind label %12

9:                                                ; preds = %2
  store i64 %8, ptr %6, align 8, !tbaa !75
  %10 = getelementptr inbounds nuw %"class.std::basic_string_view", ptr %5, i32 0, i32 1
  %11 = load ptr, ptr %4, align 8, !tbaa !31
  store ptr %11, ptr %10, align 8, !tbaa !77
  ret void

12:                                               ; preds = %2
  %13 = landingpad { ptr, i32 }
          catch ptr null
  %14 = extractvalue { ptr, i32 } %13, 0
  call void @__clang_call_terminate(ptr %14) #25
  unreachable
}

; Function Attrs: mustprogress uwtable
define linkonce_odr i64 @_ZN9grpc_core9Timestamp9InfFutureEv() #6 comdat align 2 {
  %1 = alloca %"class.grpc_core::Timestamp", align 8
  %2 = call noundef i64 @_ZNSt14numeric_limitsIlE3maxEv() #3
  call void @_ZN9grpc_core9TimestampC2El(ptr noundef nonnull align 8 dereferenceable(8) %1, i64 noundef %2)
  %3 = getelementptr inbounds nuw %"class.grpc_core::Timestamp", ptr %1, i32 0, i32 0
  %4 = load i64, ptr %3, align 8
  ret i64 %4
}

; Function Attrs: mustprogress uwtable
define internal void @_ZL19timer_list_shutdownv() #6 personality ptr @__gxx_personality_v0 {
  %1 = alloca i64, align 8
  %2 = alloca %"class.grpc_core::Timestamp", align 8
  %3 = alloca %"class.absl::lts_20240722::Status", align 8
  %4 = alloca %"class.std::basic_string_view", align 8
  %5 = alloca %"class.grpc_core::DebugLocation", align 1
  %6 = alloca %"class.std::vector", align 8
  %7 = alloca ptr, align 8
  %8 = alloca i32, align 4
  %9 = alloca ptr, align 8
  call void @llvm.lifetime.start.p0(i64 8, ptr %1) #3
  %10 = call i64 @_ZN9grpc_core9Timestamp9InfFutureEv()
  %11 = getelementptr inbounds nuw %"class.grpc_core::Timestamp", ptr %2, i32 0, i32 0
  store i64 %10, ptr %11, align 8
  call void @_ZNSt17basic_string_viewIcSt11char_traitsIcEEC2EPKc(ptr noundef nonnull align 8 dereferenceable(16) %4, ptr noundef @.str.43) #3
  call void @llvm.lifetime.start.p0(i64 1, ptr %5) #3
  call void @_ZN9grpc_core13DebugLocationC2EPKci(ptr noundef nonnull align 1 dereferenceable(1) %5, ptr noundef @.str, i32 noundef 271)
  call void @llvm.memset.p0.i64(ptr align 8 %6, i8 0, i64 24, i1 false)
  call void @_ZNSt6vectorIN4absl12lts_202407226StatusESaIS2_EEC2Ev(ptr noundef nonnull align 8 dereferenceable(24) %6) #3
  %12 = getelementptr inbounds nuw { i64, ptr }, ptr %4, i32 0, i32 0
  %13 = load i64, ptr %12, align 8
  %14 = getelementptr inbounds nuw { i64, ptr }, ptr %4, i32 0, i32 1
  %15 = load ptr, ptr %14, align 8
  invoke void @_ZN9grpc_core12StatusCreateEN4absl12lts_2024072210StatusCodeESt17basic_string_viewIcSt11char_traitsIcEERKNS_13DebugLocationESt6vectorINS1_6StatusESaISB_EE(ptr dead_on_unwind writable sret(%"class.absl::lts_20240722::Status") align 8 %3, i32 noundef 2, i64 %13, ptr %15, ptr noundef nonnull align 1 dereferenceable(1) %5, ptr noundef %6)
          to label %16 unwind label %36

16:                                               ; preds = %0
  %17 = getelementptr inbounds nuw %"class.grpc_core::Timestamp", ptr %2, i32 0, i32 0
  %18 = load i64, ptr %17, align 8
  %19 = invoke noundef i32 @_ZL23run_some_expired_timersN9grpc_core9TimestampEPS0_N4absl12lts_202407226StatusE(i64 %18, ptr noundef null, ptr noundef %3)
          to label %20 unwind label %40

20:                                               ; preds = %16
  call void @_ZN4absl12lts_202407226StatusD2Ev(ptr noundef nonnull align 8 dereferenceable(8) %3) #3
  call void @_ZNSt6vectorIN4absl12lts_202407226StatusESaIS2_EED2Ev(ptr noundef nonnull align 8 dereferenceable(24) %6) #3
  call void @llvm.lifetime.end.p0(i64 1, ptr %5) #3
  store i64 0, ptr %1, align 8, !tbaa !20
  br label %21

21:                                               ; preds = %33, %20
  %22 = load i64, ptr %1, align 8, !tbaa !20
  %23 = load i64, ptr @_ZL12g_num_shards, align 8, !tbaa !20
  %24 = icmp ult i64 %22, %23
  br i1 %24, label %25, label %45

25:                                               ; preds = %21
  call void @llvm.lifetime.start.p0(i64 8, ptr %9) #3
  %26 = load ptr, ptr @_ZL8g_shards, align 8, !tbaa !18
  %27 = load i64, ptr %1, align 8, !tbaa !20
  %28 = getelementptr inbounds nuw %struct.timer_shard, ptr %26, i64 %27
  store ptr %28, ptr %9, align 8, !tbaa !18
  %29 = load ptr, ptr %9, align 8, !tbaa !18
  %30 = getelementptr inbounds nuw %struct.timer_shard, ptr %29, i32 0, i32 0
  call void @gpr_mu_destroy(ptr noundef %30)
  %31 = load ptr, ptr %9, align 8, !tbaa !18
  %32 = getelementptr inbounds nuw %struct.timer_shard, ptr %31, i32 0, i32 5
  call void @_Z23grpc_timer_heap_destroyP15grpc_timer_heap(ptr noundef %32)
  call void @llvm.lifetime.end.p0(i64 8, ptr %9) #3
  br label %33

33:                                               ; preds = %25
  %34 = load i64, ptr %1, align 8, !tbaa !20
  %35 = add i64 %34, 1
  store i64 %35, ptr %1, align 8, !tbaa !20
  br label %21, !llvm.loop !52

36:                                               ; preds = %0
  %37 = landingpad { ptr, i32 }
          cleanup
  %38 = extractvalue { ptr, i32 } %37, 0
  store ptr %38, ptr %7, align 8
  %39 = extractvalue { ptr, i32 } %37, 1
  store i32 %39, ptr %8, align 4
  br label %44

40:                                               ; preds = %16
  %41 = landingpad { ptr, i32 }
          cleanup
  %42 = extractvalue { ptr, i32 } %41, 0
  store ptr %42, ptr %7, align 8
  %43 = extractvalue { ptr, i32 } %41, 1
  store i32 %43, ptr %8, align 4
  call void @_ZN4absl12lts_202407226StatusD2Ev(ptr noundef nonnull align 8 dereferenceable(8) %3) #3
  br label %44

44:                                               ; preds = %40, %36
  call void @_ZNSt6vectorIN4absl12lts_202407226StatusESaIS2_EED2Ev(ptr noundef nonnull align 8 dereferenceable(24) %6) #3
  call void @llvm.lifetime.end.p0(i64 1, ptr %5) #3
  call void @llvm.lifetime.end.p0(i64 8, ptr %1) #3
  br label %48

45:                                               ; preds = %21
  call void @gpr_mu_destroy(ptr noundef getelementptr inbounds nuw (%struct.shared_mutables, ptr @_ZL17g_shared_mutables, i32 0, i32 3))
  %46 = load ptr, ptr @_ZL8g_shards, align 8, !tbaa !18
  call void @gpr_free(ptr noundef %46)
  %47 = load ptr, ptr @_ZL13g_shard_queue, align 8, !tbaa !33
  call void @gpr_free(ptr noundef %47)
  store i8 0, ptr getelementptr inbounds nuw (%struct.shared_mutables, ptr @_ZL17g_shared_mutables, i32 0, i32 2), align 16, !tbaa !23
  call void @llvm.lifetime.end.p0(i64 8, ptr %1) #3
  ret void

48:                                               ; preds = %44
  %49 = load ptr, ptr %7, align 8
  %50 = load i32, ptr %8, align 4
  %51 = insertvalue { ptr, i32 } poison, ptr %49, 0
  %52 = insertvalue { ptr, i32 } %51, i32 %50, 1
  resume { ptr, i32 } %52
}