; Function Attrs: mustprogress uwtable
define internal void @_ZL19timer_list_shutdownv() #5 personality ptr @__gxx_personality_v0 {
  %1 = alloca %"class.absl::lts_20240722::Status", align 8
  %2 = alloca %"class.grpc_core::DebugLocation", align 1
  %3 = alloca %"class.std::vector", align 8
  call void @llvm.lifetime.start.p0(i64 1, ptr nonnull %2) #25
  call void @llvm.memset.p0.i64(ptr noundef nonnull align 8 dereferenceable(24) %3, i8 0, i64 24, i1 false)
  invoke void @_ZN9grpc_core12StatusCreateEN4absl12lts_2024072210StatusCodeESt17basic_string_viewIcSt11char_traitsIcEERKNS_13DebugLocationESt6vectorINS1_6StatusESaISB_EE(ptr dead_on_unwind nonnull writable sret(%"class.absl::lts_20240722::Status") align 8 %1, i32 noundef 2, i64 19, ptr nonnull @.str.43, ptr noundef nonnull align 1 dereferenceable(1) %2, ptr noundef nonnull %3)
          to label %4 unwind label %39

4:                                                ; preds = %0
  %5 = invoke fastcc noundef i32 @_ZL23run_some_expired_timersN9grpc_core9TimestampEPS0_N4absl12lts_202407226StatusE(i64 9223372036854775807, ptr noundef null, ptr noundef %1)
          to label %6 unwind label %41

6:                                                ; preds = %4
  %7 = load i64, ptr %1, align 8, !tbaa !32
  %8 = and i64 %7, 1
  %.not.i.i = icmp eq i64 %8, 0
  br i1 %.not.i.i, label %9, label %_ZN4absl12lts_202407226StatusD2Ev.exit

9:                                                ; preds = %6
  %10 = inttoptr i64 %7 to ptr
  invoke void @_ZNK4absl12lts_2024072215status_internal9StatusRep5UnrefEv(ptr noundef nonnull align 8 dereferenceable(48) %10)
          to label %_ZN4absl12lts_202407226StatusD2Ev.exit unwind label %11

11:                                               ; preds = %9
  %12 = landingpad { ptr, i32 }
          catch ptr null
  %13 = extractvalue { ptr, i32 } %12, 0
  call void @__clang_call_terminate(ptr %13) #28
  unreachable

_ZN4absl12lts_202407226StatusD2Ev.exit:           ; preds = %6, %9
  %14 = load ptr, ptr %3, align 8, !tbaa !34
  %15 = getelementptr inbounds nuw i8, ptr %3, i64 8
  %16 = load ptr, ptr %15, align 8, !tbaa !37
  %.not4.i.i.i.i = icmp eq ptr %14, %16
  br i1 %.not4.i.i.i.i, label %_ZSt8_DestroyIPN4absl12lts_202407226StatusES2_EvT_S4_RSaIT0_E.exit.i, label %.lr.ph.i.i.i.i

.lr.ph.i.i.i.i:                                   ; preds = %_ZN4absl12lts_202407226StatusD2Ev.exit, %_ZSt8_DestroyIN4absl12lts_202407226StatusEEvPT_.exit.i.i.i.i
  %.05.i.i.i.i = phi ptr [ %24, %_ZSt8_DestroyIN4absl12lts_202407226StatusEEvPT_.exit.i.i.i.i ], [ %14, %_ZN4absl12lts_202407226StatusD2Ev.exit ]
  %17 = load i64, ptr %.05.i.i.i.i, align 8, !tbaa !32
  %18 = and i64 %17, 1
  %.not.i.i.i.i.i.i.i = icmp eq i64 %18, 0
  br i1 %.not.i.i.i.i.i.i.i, label %19, label %_ZSt8_DestroyIN4absl12lts_202407226StatusEEvPT_.exit.i.i.i.i

19:                                               ; preds = %.lr.ph.i.i.i.i
  %20 = inttoptr i64 %17 to ptr
  invoke void @_ZNK4absl12lts_2024072215status_internal9StatusRep5UnrefEv(ptr noundef nonnull align 8 dereferenceable(48) %20)
          to label %_ZSt8_DestroyIN4absl12lts_202407226StatusEEvPT_.exit.i.i.i.i unwind label %21

21:                                               ; preds = %19
  %22 = landingpad { ptr, i32 }
          catch ptr null
  %23 = extractvalue { ptr, i32 } %22, 0
  call void @__clang_call_terminate(ptr %23) #28
  unreachable

_ZSt8_DestroyIN4absl12lts_202407226StatusEEvPT_.exit.i.i.i.i: ; preds = %19, %.lr.ph.i.i.i.i
  %24 = getelementptr inbounds nuw i8, ptr %.05.i.i.i.i, i64 8
  %.not.i.i.i.i = icmp eq ptr %24, %16
  br i1 %.not.i.i.i.i, label %_ZSt8_DestroyIPN4absl12lts_202407226StatusES2_EvT_S4_RSaIT0_E.exitthread-pre-split.i, label %.lr.ph.i.i.i.i, !llvm.loop !38

_ZSt8_DestroyIPN4absl12lts_202407226StatusES2_EvT_S4_RSaIT0_E.exitthread-pre-split.i: ; preds = %_ZSt8_DestroyIN4absl12lts_202407226StatusEEvPT_.exit.i.i.i.i
  %.pr.i = load ptr, ptr %3, align 8, !tbaa !34
  br label %_ZSt8_DestroyIPN4absl12lts_202407226StatusES2_EvT_S4_RSaIT0_E.exit.i

_ZSt8_DestroyIPN4absl12lts_202407226StatusES2_EvT_S4_RSaIT0_E.exit.i: ; preds = %_ZSt8_DestroyIPN4absl12lts_202407226StatusES2_EvT_S4_RSaIT0_E.exitthread-pre-split.i, %_ZN4absl12lts_202407226StatusD2Ev.exit
  %25 = phi ptr [ %.pr.i, %_ZSt8_DestroyIPN4absl12lts_202407226StatusES2_EvT_S4_RSaIT0_E.exitthread-pre-split.i ], [ %14, %_ZN4absl12lts_202407226StatusD2Ev.exit ]
  %.not.i.i.i = icmp eq ptr %25, null
  br i1 %.not.i.i.i, label %_ZNSt6vectorIN4absl12lts_202407226StatusESaIS2_EED2Ev.exit, label %26

26:                                               ; preds = %_ZSt8_DestroyIPN4absl12lts_202407226StatusES2_EvT_S4_RSaIT0_E.exit.i
  %27 = getelementptr inbounds nuw i8, ptr %3, i64 16
  %28 = load ptr, ptr %27, align 8, !tbaa !40
  %29 = ptrtoint ptr %28 to i64
  %30 = ptrtoint ptr %25 to i64
  %31 = sub i64 %29, %30
  call void @_ZdlPvm(ptr noundef nonnull %25, i64 noundef %31) #29
  br label %_ZNSt6vectorIN4absl12lts_202407226StatusESaIS2_EED2Ev.exit

_ZNSt6vectorIN4absl12lts_202407226StatusESaIS2_EED2Ev.exit: ; preds = %_ZSt8_DestroyIPN4absl12lts_202407226StatusES2_EvT_S4_RSaIT0_E.exit.i, %26
  call void @llvm.lifetime.end.p0(i64 1, ptr nonnull %2) #25
  %32 = load i64, ptr @_ZL12g_num_shards, align 8, !tbaa !17
  %.not = icmp eq i64 %32, 0
  br i1 %.not, label %._crit_edge, label %.lr.ph

.lr.ph:                                           ; preds = %_ZNSt6vectorIN4absl12lts_202407226StatusESaIS2_EED2Ev.exit, %.lr.ph
  %.09 = phi i64 [ %36, %.lr.ph ], [ 0, %_ZNSt6vectorIN4absl12lts_202407226StatusESaIS2_EED2Ev.exit ]
  %33 = load ptr, ptr @_ZL8g_shards, align 8, !tbaa !15
  %34 = getelementptr inbounds nuw %struct.timer_shard, ptr %33, i64 %.09
  call void @gpr_mu_destroy(ptr noundef %34)
  %35 = getelementptr inbounds nuw i8, ptr %34, i64 88
  call void @_Z23grpc_timer_heap_destroyP15grpc_timer_heap(ptr noundef nonnull %35)
  %36 = add nuw nsw i64 %.09, 1
  %37 = load i64, ptr @_ZL12g_num_shards, align 8, !tbaa !17
  %38 = icmp ult i64 %36, %37
  br i1 %38, label %.lr.ph, label %._crit_edge, !llvm.loop !80

39:                                               ; preds = %0
  %40 = landingpad { ptr, i32 }
          cleanup
  br label %43

41:                                               ; preds = %4
  %42 = landingpad { ptr, i32 }
          cleanup
  call void @_ZN4absl12lts_202407226StatusD2Ev(ptr noundef nonnull align 8 dereferenceable(8) %1) #25
  br label %43

43:                                               ; preds = %41, %39
  %.pn = phi { ptr, i32 } [ %42, %41 ], [ %40, %39 ]
  call void @_ZNSt6vectorIN4absl12lts_202407226StatusESaIS2_EED2Ev(ptr noundef nonnull align 8 dereferenceable(24) %3) #25
  call void @llvm.lifetime.end.p0(i64 1, ptr nonnull %2) #25
  resume { ptr, i32 } %.pn

._crit_edge:                                      ; preds = %.lr.ph, %_ZNSt6vectorIN4absl12lts_202407226StatusESaIS2_EED2Ev.exit
  call void @gpr_mu_destroy(ptr noundef nonnull getelementptr inbounds nuw (i8, ptr @_ZL17g_shared_mutables, i64 24))
  %44 = load ptr, ptr @_ZL8g_shards, align 8, !tbaa !15
  call void @gpr_free(ptr noundef %44)
  %45 = load ptr, ptr @_ZL13g_shard_queue, align 8, !tbaa !50
  call void @gpr_free(ptr noundef %45)
  store i8 0, ptr getelementptr inbounds nuw (i8, ptr @_ZL17g_shared_mutables, i64 16), align 16, !tbaa !26
  ret void
}